; Function Attrs: mustprogress nofree norecurse nosync nounwind willreturn memory(write, argmem: readwrite, inaccessiblemem: none) uwtable
define hidden void @_ZN10ClipperLib7Clipper13DeleteFromSELEPNS_5TEdgeE(ptr nocapture noundef nonnull align 8 dereferenceable(135) %this, ptr noundef %e) local_unnamed_addr #12 align 2 {
entry:
  %PrevInSEL = getelementptr inbounds i8, ptr %e, i64 128
  %0 = load ptr, ptr %PrevInSEL, align 8
  %NextInSEL = getelementptr inbounds i8, ptr %e, i64 120
  %1 = load ptr, ptr %NextInSEL, align 8
  %tobool = icmp ne ptr %0, null
  %tobool2 = icmp ne ptr %1, null
  %or.cond = select i1 %tobool, i1 true, i1 %tobool2
  %m_SortedEdges = getelementptr inbounds i8, ptr %this, i64 112
  %2 = load ptr, ptr %m_SortedEdges, align 8
  %cmp.not = icmp eq ptr %2, %e
  %or.cond13 = select i1 %or.cond, i1 true, i1 %cmp.not
  br i1 %or.cond13, label %if.end, label %return

if.end:                                           ; preds = %entry
  %NextInSEL6 = getelementptr inbounds i8, ptr %0, i64 120
  %m_SortedEdges.sink = select i1 %tobool, ptr %NextInSEL6, ptr %m_SortedEdges
  store ptr %1, ptr %m_SortedEdges.sink, align 8
  br i1 %tobool2, label %if.then10, label %if.end12

if.then10:                                        ; preds = %if.end
  %PrevInSEL11 = getelementptr inbounds i8, ptr %1, i64 128
  store ptr %0, ptr %PrevInSEL11, align 8
  br label %if.end12

if.end12:                                         ; preds = %if.then10, %if.end
  tail call void @llvm.memset.p0.i64(ptr noundef nonnull align 8 dereferenceable(16) %NextInSEL, i8 0, i64 16, i1 false)
  br label %return

return:                                           ; preds = %entry, %if.end12
  ret void
}